; Function Attrs: mustprogress uwtable
define noundef float @_Z21gmx_stats_get_averageP9gmx_stats(ptr nocapture noundef %0) local_unnamed_addr #0 personality ptr @__gxx_personality_v0 {
  %2 = alloca %"class.gmx::InconsistentInputError", align 8
  %3 = alloca %"class.gmx::ExceptionInitializer", align 8
  %4 = alloca %"class.gmx::ExceptionInfo", align 8
  %5 = getelementptr inbounds i8, ptr %0, i64 124
  %6 = load i32, ptr %5, align 4
  %7 = icmp slt i32 %6, 1
  br i1 %7, label %8, label %19

8:                                                ; preds = %1
  %9 = tail call ptr @__cxa_allocate_exception(i64 24) #16
  invoke void @_ZN3gmx20ExceptionInitializerC2EPKc(ptr noundef nonnull align 8 dereferenceable(56) %3, ptr noundef nonnull @.str.8)
          to label %10 unwind label %.thread

10:                                               ; preds = %8
  invoke void @_ZN3gmx16GromacsExceptionC2ERKNS_20ExceptionInitializerE(ptr noundef nonnull align 8 dereferenceable(24) %2, ptr noundef nonnull align 8 dereferenceable(56) %3)
          to label %11 unwind label %.thread16

11:                                               ; preds = %10
  store ptr getelementptr inbounds inrange(-16, 32) ({ [6 x ptr] }, ptr @_ZTVN3gmx22InconsistentInputErrorE, i64 0, i32 0, i64 2), ptr %2, align 8
  store ptr getelementptr inbounds inrange(-16, 16) ({ [4 x ptr] }, ptr @_ZTVN3gmx13ExceptionInfoINS_22ExceptionInfoLocation_ENS_13ThrowLocationEEE, i64 0, i32 0, i64 2), ptr %4, align 8
  %12 = getelementptr inbounds i8, ptr %4, i64 8
  store ptr @__PRETTY_FUNCTION__._Z21gmx_stats_get_averageP9gmx_stats, ptr %12, align 8
  %.sroa.2.0..sroa_idx = getelementptr inbounds i8, ptr %4, i64 16
  store ptr @.str.1, ptr %.sroa.2.0..sroa_idx, align 8
  %.sroa.3.0..sroa_idx = getelementptr inbounds i8, ptr %4, i64 24
  store i32 262, ptr %.sroa.3.0..sroa_idx, align 8
  invoke void @_ZN3gmxlsINS_22InconsistentInputErrorENS_22ExceptionInfoLocation_ENS_13ThrowLocationEEENSt9enable_ifIXsr3std10is_base_ofINS_16GromacsExceptionET_EE5valueES6_E4typeES6_RKNS_13ExceptionInfoIT0_T1_EE(ptr dead_on_unwind writable sret(%"class.gmx::InconsistentInputError") align 8 %9, ptr noundef nonnull %2, ptr noundef nonnull align 8 dereferenceable(32) %4)
          to label %13 unwind label %16

13:                                               ; preds = %11
  invoke void @__cxa_throw(ptr %9, ptr nonnull @_ZTIN3gmx22InconsistentInputErrorE, ptr nonnull @_ZN3gmx22InconsistentInputErrorD2Ev) #15
          to label %24 unwind label %16

.thread:                                          ; preds = %8
  %14 = landingpad { ptr, i32 }
          cleanup
  br label %18

.thread16:                                        ; preds = %10
  %15 = landingpad { ptr, i32 }
          cleanup
  call void @_ZN3gmx20ExceptionInitializerD2Ev(ptr noundef nonnull align 8 dereferenceable(56) %3) #16
  br label %18

16:                                               ; preds = %11, %13
  %.0 = phi i1 [ false, %13 ], [ true, %11 ]
  %17 = landingpad { ptr, i32 }
          cleanup
  call void @_ZN3gmx8internal14IExceptionInfoD2Ev(ptr noundef nonnull align 8 dereferenceable(8) %4) #16
  call void @_ZN3gmx22InconsistentInputErrorD2Ev(ptr noundef nonnull align 8 dereferenceable(24) %2) #16
  call void @_ZN3gmx20ExceptionInitializerD2Ev(ptr noundef nonnull align 8 dereferenceable(56) %3) #16
  br i1 %.0, label %18, label %23

18:                                               ; preds = %.thread16, %.thread, %16
  %.pn.pn15 = phi { ptr, i32 } [ %14, %.thread ], [ %17, %16 ], [ %15, %.thread16 ]
  call void @__cxa_free_exception(ptr %9) #16
  br label %23

19:                                               ; preds = %1
  tail call fastcc void @_ZL17gmx_stats_computeP9gmx_statsi(ptr noundef nonnull %0, i32 noundef 0)
  %20 = getelementptr inbounds i8, ptr %0, i64 40
  %21 = load double, ptr %20, align 8
  %22 = fptrunc double %21 to float
  ret float %22

23:                                               ; preds = %16, %18
  %.pn.pn14 = phi { ptr, i32 } [ %17, %16 ], [ %.pn.pn15, %18 ]
  resume { ptr, i32 } %.pn.pn14

24:                                               ; preds = %13
  unreachable
}